; Function Attrs: mustprogress uwtable
define internal noundef zeroext i1 @_ZN12_GLOBAL__N_133TestPresetExecutionShowOnlyHelperERN19cmCMakePresetsGraph10TestPreset16ExecutionOptions12ShowOnlyEnumEPKN4Json5ValueEP11cmJSONState(ptr nocapture noundef nonnull writeonly align 4 dereferenceable(4) %0, ptr noundef %1, ptr noundef %2) #3 {
  %4 = alloca %"class.std::__cxx11::basic_string", align 8
  %5 = alloca %"class.std::__cxx11::basic_string", align 8
  %.not = icmp eq ptr %1, null
  br i1 %.not, label %8, label %6

6:                                                ; preds = %3
  %7 = tail call noundef zeroext i1 @_ZNK4Json5Value8isStringEv(ptr noundef nonnull align 8 dereferenceable(40) %1)
  br i1 %7, label %9, label %8

8:                                                ; preds = %6, %3
  tail call void @_ZN20cmCMakePresetsErrors14INVALID_PRESETEPKN4Json5ValueEP11cmJSONState(ptr noundef %1, ptr noundef %2)
  br label %18

9:                                                ; preds = %6
  call void @_ZNK4Json5Value8asStringB5cxx11Ev(ptr dead_on_unwind nonnull writable sret(%"class.std::__cxx11::basic_string") align 8 %4, ptr noundef nonnull align 8 dereferenceable(40) %1)
  %10 = call noundef i32 @_ZNKSt7__cxx1112basic_stringIcSt11char_traitsIcESaIcEE7compareEPKc(ptr noundef nonnull align 8 dereferenceable(32) %4, ptr noundef nonnull @.str.73) #17
  %11 = icmp eq i32 %10, 0
  call void @_ZNSt7__cxx1112basic_stringIcSt11char_traitsIcESaIcEED1Ev(ptr noundef nonnull align 8 dereferenceable(32) %4) #17
  br i1 %11, label %12, label %13

12:                                               ; preds = %9
  store i32 0, ptr %0, align 4
  br label %18

13:                                               ; preds = %9
  call void @_ZNK4Json5Value8asStringB5cxx11Ev(ptr dead_on_unwind nonnull writable sret(%"class.std::__cxx11::basic_string") align 8 %5, ptr noundef nonnull align 8 dereferenceable(40) %1)
  %14 = call noundef i32 @_ZNKSt7__cxx1112basic_stringIcSt11char_traitsIcESaIcEE7compareEPKc(ptr noundef nonnull align 8 dereferenceable(32) %5, ptr noundef nonnull @.str.74) #17
  %15 = icmp eq i32 %14, 0
  call void @_ZNSt7__cxx1112basic_stringIcSt11char_traitsIcESaIcEED1Ev(ptr noundef nonnull align 8 dereferenceable(32) %5) #17
  br i1 %15, label %16, label %17

16:                                               ; preds = %13
  store i32 1, ptr %0, align 4
  br label %18

17:                                               ; preds = %13
  call void @_ZN20cmCMakePresetsErrors14INVALID_PRESETEPKN4Json5ValueEP11cmJSONState(ptr noundef nonnull %1, ptr noundef %2)
  br label %18

18:                                               ; preds = %17, %16, %12, %8
  %.0 = phi i1 [ true, %12 ], [ true, %16 ], [ false, %17 ], [ false, %8 ]
  ret i1 %.0
}